target datalayout = "e-m:e-p270:32:32-p271:32:32-p272:64:64-i64:64-i128:128-f80:128-n8:16:32:64-S128"
target triple = "x86_64-pc-linux-gnu"

%"class.pxrInternal_v0_24__pxrReserved__::PcpNodeRef" = type { ptr, i64 }
%"class.pxrInternal_v0_24__pxrReserved__::(anonymous namespace)::_ArcOptions" = type { i8, i8, i8, i8, i8 }

; Function Attrs: mustprogress uwtable
define internal { ptr, i64 } @_ZN32pxrInternal_v0_24__pxrReserved__L7_AddArcEPNS_15Pcp_PrimIndexerENS_10PcpArcTypeENS_10PcpNodeRefERKS3_RKNS_17PcpLayerStackSiteERKNS_16PcpMapExpressionEiNS_12_GLOBAL__N_111_ArcOptionsE(ptr noundef %0, i32 noundef %1, ptr %2, i64 %3, ptr noundef nonnull align 8 dereferenceable(16) %4, ptr noundef nonnull align 8 dereferenceable(16) %5, ptr noundef nonnull align 8 dereferenceable(8) %6, i32 noundef %7, i40 %8) #4 {
  %10 = alloca %"class.pxrInternal_v0_24__pxrReserved__::PcpNodeRef", align 8
  %11 = alloca %"class.pxrInternal_v0_24__pxrReserved__::PcpNodeRef", align 8
  %12 = alloca %"class.pxrInternal_v0_24__pxrReserved__::(anonymous namespace)::_ArcOptions", align 1
  %13 = alloca ptr, align 8
  %14 = alloca i32, align 4
  %15 = alloca ptr, align 8
  %16 = alloca ptr, align 8
  %17 = alloca ptr, align 8
  %18 = alloca i32, align 4
  %19 = alloca i32, align 4
  %20 = alloca %"class.pxrInternal_v0_24__pxrReserved__::PcpNodeRef", align 8
  %21 = alloca %"class.pxrInternal_v0_24__pxrReserved__::(anonymous namespace)::_ArcOptions", align 1
  %22 = alloca i40, align 8
  %23 = getelementptr inbounds nuw { ptr, i64 }, ptr %11, i32 0, i32 0
  store ptr %2, ptr %23, align 8
  %24 = getelementptr inbounds nuw { ptr, i64 }, ptr %11, i32 0, i32 1
  store i64 %3, ptr %24, align 8
  store i40 %8, ptr %12, align 1
  store ptr %0, ptr %13, align 8
  store i32 %1, ptr %14, align 4
  store ptr %4, ptr %15, align 8
  store ptr %5, ptr %16, align 8
  store ptr %6, ptr %17, align 8
  store i32 %7, ptr %18, align 4
  %25 = call noundef nonnull align 4 dereferenceable(8) ptr @_ZNK32pxrInternal_v0_24__pxrReserved__10PcpNodeRef7GetPathEv(ptr noundef nonnull align 8 dereferenceable(16) %11)
  %26 = call noundef i32 @_ZN32pxrInternal_v0_24__pxrReserved__37PcpNode_GetNonVariantPathElementCountERKNS_7SdfPathE(ptr noundef nonnull align 4 dereferenceable(8) %25)
  store i32 %26, ptr %19, align 4
  %27 = load ptr, ptr %13, align 8
  %28 = load i32, ptr %14, align 4
  call void @llvm.memcpy.p0.p0.i64(ptr align 8 %20, ptr align 8 %11, i64 16, i1 false)
  %29 = load ptr, ptr %15, align 8
  %30 = load ptr, ptr %16, align 8
  %31 = load ptr, ptr %17, align 8
  %32 = load i32, ptr %18, align 4
  %33 = load i32, ptr %19, align 4
  call void @llvm.memcpy.p0.p0.i64(ptr align 1 %21, ptr align 1 %12, i64 5, i1 false)
  %34 = getelementptr inbounds nuw { ptr, i64 }, ptr %20, i32 0, i32 0
  %35 = load ptr, ptr %34, align 8
  %36 = getelementptr inbounds nuw { ptr, i64 }, ptr %20, i32 0, i32 1
  %37 = load i64, ptr %36, align 8
  call void @llvm.memcpy.p0.p0.i64(ptr align 8 %22, ptr align 1 %21, i64 5, i1 false)
  %38 = load i40, ptr %22, align 8
  %39 = call { ptr, i64 } @_ZN32pxrInternal_v0_24__pxrReserved__L7_AddArcEPNS_15Pcp_PrimIndexerENS_10PcpArcTypeENS_10PcpNodeRefERKS3_RKNS_17PcpLayerStackSiteERKNS_16PcpMapExpressionEiiNS_12_GLOBAL__N_111_ArcOptionsE(ptr noundef %27, i32 noundef %28, ptr %35, i64 %37, ptr noundef nonnull align 8 dereferenceable(16) %29, ptr noundef nonnull align 8 dereferenceable(16) %30, ptr noundef nonnull align 8 dereferenceable(8) %31, i32 noundef %32, i32 noundef %33, i40 %38)
  %40 = getelementptr inbounds nuw { ptr, i64 }, ptr %10, i32 0, i32 0
  %41 = extractvalue { ptr, i64 } %39, 0
  store ptr %41, ptr %40, align 8
  %42 = getelementptr inbounds nuw { ptr, i64 }, ptr %10, i32 0, i32 1
  %43 = extractvalue { ptr, i64 } %39, 1
  store i64 %43, ptr %42, align 8
  %44 = load { ptr, i64 }, ptr %10, align 8
  ret { ptr, i64 } %44
}