; Function Attrs: mustprogress uwtable
define internal fastcc void @_ZN32pxrInternal_v0_24__pxrReserved__L7_AddArcEPNS_15Pcp_PrimIndexerENS_10PcpArcTypeENS_10PcpNodeRefERKS3_RKNS_17PcpLayerStackSiteERKNS_16PcpMapExpressionEiNS_12_GLOBAL__N_111_ArcOptionsE(ptr noundef %0, i32 noundef %1, ptr %2, i64 %3, ptr noundef nonnull align 8 dereferenceable(16) %4, ptr noundef nonnull align 8 dereferenceable(16) %5, ptr nocapture noundef nonnull readonly align 8 dereferenceable(8) %6, i32 noundef %7, i40 %8) unnamed_addr #3 {
  %10 = alloca %"class.pxrInternal_v0_24__pxrReserved__::PcpNodeRef", align 8
  store ptr %2, ptr %10, align 8
  %11 = getelementptr inbounds nuw i8, ptr %10, i64 8
  store i64 %3, ptr %11, align 8
  %12 = call noundef nonnull align 4 dereferenceable(8) ptr @_ZNK32pxrInternal_v0_24__pxrReserved__10PcpNodeRef7GetPathEv(ptr noundef nonnull align 8 dereferenceable(16) %10)
  %13 = call noundef i32 @_ZN32pxrInternal_v0_24__pxrReserved__37PcpNode_GetNonVariantPathElementCountERKNS_7SdfPathE(ptr noundef nonnull align 4 dereferenceable(8) %12)
  %.sroa.01.0.copyload = load ptr, ptr %10, align 8
  %.sroa.2.0.copyload = load i64, ptr %11, align 8
  %14 = call fastcc { ptr, i64 } @_ZN32pxrInternal_v0_24__pxrReserved__L7_AddArcEPNS_15Pcp_PrimIndexerENS_10PcpArcTypeENS_10PcpNodeRefERKS3_RKNS_17PcpLayerStackSiteERKNS_16PcpMapExpressionEiiNS_12_GLOBAL__N_111_ArcOptionsE(ptr noundef %0, i32 noundef %1, ptr %.sroa.01.0.copyload, i64 %.sroa.2.0.copyload, ptr noundef nonnull align 8 dereferenceable(16) %4, ptr noundef nonnull align 8 dereferenceable(16) %5, ptr noundef nonnull align 8 dereferenceable(8) %6, i32 noundef %7, i32 noundef %13, i40 %8)
  ret void
}